target datalayout = "e-m:e-p270:32:32-p271:32:32-p272:64:64-i64:64-i128:128-f80:128-n8:16:32:64-S128"
target triple = "x86_64-pc-linux-gnu"

%struct.rb_data_type_struct = type { ptr, %struct.anon.12, ptr, ptr, i64 }
%struct.anon.12 = type { ptr, ptr, ptr, ptr, [1 x ptr] }
%struct.rb_thread_struct = type { %struct.ccan_list_node, i64, ptr, ptr, ptr, ptr, %struct.rb_thread_sched_item, i8, i32, i64, ptr, i64, i64, i8, i8, i32, ptr, i64, i64, i64, i64, %union.pthread_mutex_t, %struct.rb_unblock_callback, i64, ptr, %struct.ccan_list_head, ptr, %union.anon, i32, i64, ptr, i64, i32, i64, ptr, %struct.rb_ext_config }
%struct.ccan_list_node = type { ptr, ptr }
%struct.rb_thread_sched_item = type { %struct.anon, %struct.rb_thread_sched_waiting, i8, i8, ptr, ptr }
%struct.anon = type { %struct.ccan_list_node, %struct.ccan_list_node, %struct.ccan_list_node, %struct.ccan_list_node, %struct.ccan_list_node }
%struct.rb_thread_sched_waiting = type { i32, %struct.anon.0, %struct.ccan_list_node }
%struct.anon.0 = type { i64, i32, i32 }
%union.pthread_mutex_t = type { %struct.__pthread_mutex_s }
%struct.__pthread_mutex_s = type { i32, i32, i32, i32, i32, i16, i16, %struct.__pthread_internal_list }
%struct.__pthread_internal_list = type { ptr, ptr }
%struct.rb_unblock_callback = type { ptr, ptr }
%struct.ccan_list_head = type { %struct.ccan_list_node }
%union.anon = type { %struct.anon.1 }
%struct.anon.1 = type { i64, i64, i32 }
%struct.rb_ext_config = type { i8 }
%struct.rb_process_status = type { i32, i32, i32 }
%struct.__sigset_t = type { [16 x i64] }
%struct.rb_execution_context_struct = type { ptr, i64, ptr, ptr, i32, i32, ptr, ptr, ptr, i64, i64, i64, ptr, i64, ptr, i64, i64, i8, i8, i64, %struct.anon.11 }
%struct.anon.11 = type { ptr, ptr, i64, [1 x %struct.__jmp_buf_tag] }
%struct.__jmp_buf_tag = type { [8 x i64], i32, %struct.__sigset_t }

@rb_process_status_type = internal constant %struct.rb_data_type_struct { ptr @.str.172, %struct.anon.12 { ptr null, ptr inttoptr (i64 -1 to ptr), ptr null, ptr null, [1 x ptr] zeroinitializer }, ptr null, ptr null, i64 35 }, align 8
@ruby_current_ec = external thread_local global ptr, align 8

; Function Attrs: inlinehint nounwind sspstrong uwtable
define internal ptr @rb_ec_thread_ptr(ptr noundef %0) #1 {
  %2 = alloca ptr, align 8
  store ptr %0, ptr %2, align 8, !tbaa !33
  %3 = load ptr, ptr %2, align 8, !tbaa !33
  %4 = getelementptr inbounds nuw %struct.rb_execution_context_struct, ptr %3, i32 0, i32 7
  %5 = load ptr, ptr %4, align 8, !tbaa !210
  ret ptr %5
}

; Function Attrs: inlinehint nounwind sspstrong uwtable
define internal ptr @rb_current_execution_context(i1 noundef zeroext %0) #1 {
  %2 = alloca i8, align 1
  %3 = alloca ptr, align 8
  %4 = zext i1 %0 to i8
  store i8 %4, ptr %2, align 1, !tbaa !57
  call void @llvm.lifetime.start.p0(i64 8, ptr %3) #27
  %5 = call align 8 ptr @llvm.threadlocal.address.p0(ptr align 8 @ruby_current_ec)
  %6 = load ptr, ptr %5, align 8, !tbaa !33
  store ptr %6, ptr %3, align 8, !tbaa !33
  %7 = load ptr, ptr %3, align 8, !tbaa !33
  call void @llvm.lifetime.end.p0(i64 8, ptr %3) #27
  ret ptr %7
}

; Function Attrs: inlinehint nounwind sspstrong willreturn memory(none) uwtable
define internal i64 @RB_INT2FIX(i64 noundef %0) #4 {
  %2 = alloca i64, align 8
  %3 = alloca i64, align 8
  %4 = alloca i64, align 8
  %5 = alloca i64, align 8
  %6 = alloca i64, align 8
  %7 = alloca i64, align 8
  store i64 %0, ptr %2, align 8, !tbaa !35
  call void @llvm.lifetime.start.p0(i64 8, ptr %3) #27
  %8 = load i64, ptr %2, align 8, !tbaa !35
  store i64 %8, ptr %3, align 8, !tbaa !35
  call void @llvm.lifetime.start.p0(i64 8, ptr %4) #27
  %9 = load i64, ptr %3, align 8, !tbaa !35
  %10 = shl i64 %9, 1
  %11 = add i64 %10, 1
  store i64 %11, ptr %4, align 8, !tbaa !35
  call void @llvm.lifetime.start.p0(i64 8, ptr %5) #27
  %12 = load i64, ptr %4, align 8, !tbaa !35
  store i64 %12, ptr %5, align 8, !tbaa !35
  call void @llvm.lifetime.start.p0(i64 8, ptr %6) #27
  %13 = load i64, ptr %5, align 8, !tbaa !35
  store i64 %13, ptr %6, align 8, !tbaa !35
  call void @llvm.lifetime.start.p0(i64 8, ptr %7) #27
  %14 = load i64, ptr %6, align 8, !tbaa !35
  store i64 %14, ptr %7, align 8, !tbaa !35
  %15 = load i64, ptr %7, align 8, !tbaa !35
  call void @llvm.lifetime.end.p0(i64 8, ptr %7) #27
  call void @llvm.lifetime.end.p0(i64 8, ptr %6) #27
  call void @llvm.lifetime.end.p0(i64 8, ptr %5) #27
  call void @llvm.lifetime.end.p0(i64 8, ptr %4) #27
  call void @llvm.lifetime.end.p0(i64 8, ptr %3) #27
  ret i64 %15
}

; Function Attrs: inlinehint nounwind sspstrong willreturn memory(none) uwtable
define internal zeroext i1 @RB_NIL_P(i64 noundef %0) #4 {
  %2 = alloca i64, align 8
  store i64 %0, ptr %2, align 8, !tbaa !35
  %3 = load i64, ptr %2, align 8, !tbaa !35
  %4 = icmp eq i64 %3, 4
  ret i1 %4
}

; Function Attrs: nounwind sspstrong uwtable
define internal void @last_status_clear(ptr noundef %0) #0 {
  %2 = alloca ptr, align 8
  store ptr %0, ptr %2, align 8, !tbaa !46
  %3 = load ptr, ptr %2, align 8, !tbaa !46
  %4 = getelementptr inbounds nuw %struct.rb_thread_struct, ptr %3, i32 0, i32 9
  store i64 4, ptr %4, align 8, !tbaa !7
  ret void
}

; Function Attrs: inlinehint nounwind sspstrong uwtable
define internal ptr @rb_current_thread() #1 {
  %1 = alloca ptr, align 8
  call void @llvm.lifetime.start.p0(i64 8, ptr %1) #27
  %2 = call ptr @rb_current_execution_context(i1 noundef zeroext true)
  store ptr %2, ptr %1, align 8, !tbaa !33
  %3 = load ptr, ptr %1, align 8, !tbaa !33
  %4 = call ptr @rb_ec_thread_ptr(ptr noundef %3)
  call void @llvm.lifetime.end.p0(i64 8, ptr %1) #27
  ret ptr %4
}

; Function Attrs: nounwind sspstrong uwtable
define dso_local i64 @rb_last_status_get() #0 {
  %1 = call ptr @rb_current_thread()
  %2 = getelementptr inbounds nuw %struct.rb_thread_struct, ptr %1, i32 0, i32 9
  %3 = load i64, ptr %2, align 8, !tbaa !7
  ret i64 %3
}

; Function Attrs: inlinehint nounwind sspstrong uwtable
define internal i64 @rb_int2num_inline(i32 noundef %0) #1 {
  %2 = alloca i64, align 8
  %3 = alloca i32, align 4
  store i32 %0, ptr %3, align 4, !tbaa !34
  %4 = load i32, ptr %3, align 4, !tbaa !34
  %5 = sext i32 %4 to i64
  %6 = icmp slt i64 %5, 4611686018427387904
  br i1 %6, label %7, label %15

7:                                                ; preds = %1
  %8 = load i32, ptr %3, align 4, !tbaa !34
  %9 = sext i32 %8 to i64
  %10 = icmp sge i64 %9, -4611686018427387904
  br i1 %10, label %11, label %15

11:                                               ; preds = %7
  %12 = load i32, ptr %3, align 4, !tbaa !34
  %13 = sext i32 %12 to i64
  %14 = call i64 @RB_INT2FIX(i64 noundef %13) #28
  store i64 %14, ptr %2, align 8
  br label %19

15:                                               ; preds = %7, %1
  %16 = load i32, ptr %3, align 4, !tbaa !34
  %17 = sext i32 %16 to i64
  %18 = call i64 @rb_int2big(i64 noundef %17)
  store i64 %18, ptr %2, align 8
  br label %19

19:                                               ; preds = %15, %11
  %20 = load i64, ptr %2, align 8
  ret i64 %20
}

; Function Attrs: nounwind sspstrong uwtable
define dso_local i32 @rb_waitpid(i32 noundef %0, ptr noundef %1, i32 noundef %2) #0 {
  %4 = alloca i32, align 4
  %5 = alloca i32, align 4
  %6 = alloca ptr, align 8
  %7 = alloca i32, align 4
  %8 = alloca i64, align 8
  %9 = alloca i32, align 4
  %10 = alloca ptr, align 8
  store i32 %0, ptr %5, align 4, !tbaa !34
  store ptr %1, ptr %6, align 8, !tbaa !60
  store i32 %2, ptr %7, align 4, !tbaa !34
  call void @llvm.lifetime.start.p0(i64 8, ptr %8) #27
  %11 = load i32, ptr %5, align 4, !tbaa !34
  %12 = load i32, ptr %7, align 4, !tbaa !34
  %13 = call i64 @rb_process_status_wait(i32 noundef %11, i32 noundef %12)
  store i64 %13, ptr %8, align 8, !tbaa !35
  %14 = load i64, ptr %8, align 8, !tbaa !35
  %15 = call zeroext i1 @RB_NIL_P(i64 noundef %14) #28
  br i1 %15, label %16, label %17

16:                                               ; preds = %3
  store i32 0, ptr %4, align 4
  store i32 1, ptr %9, align 4
  br label %44

17:                                               ; preds = %3
  call void @llvm.lifetime.start.p0(i64 8, ptr %10) #27
  %18 = load i64, ptr %8, align 8, !tbaa !35
  %19 = call ptr @rb_check_typeddata(i64 noundef %18, ptr noundef @rb_process_status_type)
  store ptr %19, ptr %10, align 8, !tbaa !36
  %20 = load ptr, ptr %10, align 8, !tbaa !36
  %21 = getelementptr inbounds nuw %struct.rb_process_status, ptr %20, i32 0, i32 0
  %22 = load i32, ptr %21, align 4, !tbaa !38
  store i32 %22, ptr %5, align 4, !tbaa !34
  %23 = load ptr, ptr %6, align 8, !tbaa !60
  %24 = icmp ne ptr %23, null
  br i1 %24, label %25, label %30

25:                                               ; preds = %17
  %26 = load ptr, ptr %10, align 8, !tbaa !36
  %27 = getelementptr inbounds nuw %struct.rb_process_status, ptr %26, i32 0, i32 1
  %28 = load i32, ptr %27, align 4, !tbaa !40
  %29 = load ptr, ptr %6, align 8, !tbaa !60
  store i32 %28, ptr %29, align 4, !tbaa !34
  br label %30

30:                                               ; preds = %25, %17
  %31 = load i32, ptr %5, align 4, !tbaa !34
  %32 = icmp eq i32 %31, -1
  br i1 %32, label %33, label %38

33:                                               ; preds = %30
  %34 = load ptr, ptr %10, align 8, !tbaa !36
  %35 = getelementptr inbounds nuw %struct.rb_process_status, ptr %34, i32 0, i32 2
  %36 = load i32, ptr %35, align 4, !tbaa !41
  %37 = call ptr @rb_errno_ptr()
  store i32 %36, ptr %37, align 4, !tbaa !34
  br label %42

38:                                               ; preds = %30
  %39 = load i64, ptr %8, align 8, !tbaa !35
  %40 = call ptr @rb_current_thread()
  %41 = getelementptr inbounds nuw %struct.rb_thread_struct, ptr %40, i32 0, i32 9
  store i64 %39, ptr %41, align 8, !tbaa !7
  br label %42

42:                                               ; preds = %38, %33
  %43 = load i32, ptr %5, align 4, !tbaa !34
  store i32 %43, ptr %4, align 4
  store i32 1, ptr %9, align 4
  call void @llvm.lifetime.end.p0(i64 8, ptr %10) #27
  br label %44

44:                                               ; preds = %42, %16
  call void @llvm.lifetime.end.p0(i64 8, ptr %8) #27
  %45 = load i32, ptr %4, align 4
  ret i32 %45
}

; Function Attrs: nounwind sspstrong uwtable
define hidden void @rb_last_status_clear() #0 {
  %1 = call ptr @rb_current_thread()
  call void @last_status_clear(ptr noundef %1)
  ret void
}

; Function Attrs: nounwind sspstrong uwtable
define internal i64 @proc_waitall(i64 noundef %0) #0 {
  %2 = alloca i64, align 8
  %3 = alloca i64, align 8
  %4 = alloca i32, align 4
  %5 = alloca i32, align 4
  %6 = alloca i32, align 4
  store i64 %0, ptr %2, align 8, !tbaa !35
  call void @llvm.lifetime.start.p0(i64 8, ptr %3) #27
  call void @llvm.lifetime.start.p0(i64 4, ptr %4) #27
  call void @llvm.lifetime.start.p0(i64 4, ptr %5) #27
  %7 = call i64 @rb_ary_new()
  store i64 %7, ptr %3, align 8, !tbaa !35
  call void @rb_last_status_clear()
  store i32 -1, ptr %4, align 4, !tbaa !34
  br label %8

8:                                                ; preds = %20, %1
  %9 = call i32 @rb_waitpid(i32 noundef -1, ptr noundef %5, i32 noundef 0)
  store i32 %9, ptr %4, align 4, !tbaa !34
  %10 = load i32, ptr %4, align 4, !tbaa !34
  %11 = icmp eq i32 %10, -1
  br i1 %11, label %12, label %20

12:                                               ; preds = %8
  call void @llvm.lifetime.start.p0(i64 4, ptr %6) #27
  %13 = call ptr @rb_errno_ptr()
  %14 = load i32, ptr %13, align 4, !tbaa !34
  store i32 %14, ptr %6, align 4, !tbaa !34
  %15 = load i32, ptr %6, align 4, !tbaa !34
  %16 = icmp eq i32 %15, 10
  br i1 %16, label %17, label %18

17:                                               ; preds = %12
  call void @llvm.lifetime.end.p0(i64 4, ptr %6) #27
  br label %27

18:                                               ; preds = %12
  %19 = load i32, ptr %6, align 4, !tbaa !34
  call void @rb_syserr_fail(i32 noundef %19, ptr noundef null) #30
  unreachable

20:                                               ; preds = %8
  %21 = load i64, ptr %3, align 8, !tbaa !35
  %22 = load i32, ptr %4, align 4, !tbaa !34
  %23 = call i64 @rb_int2num_inline(i32 noundef %22)
  %24 = call i64 @rb_last_status_get()
  %25 = call i64 @rb_assoc_new(i64 noundef %23, i64 noundef %24)
  %26 = call i64 @rb_ary_push(i64 noundef %21, i64 noundef %25)
  br label %8

27:                                               ; preds = %17
  %28 = load i64, ptr %3, align 8, !tbaa !35
  call void @llvm.lifetime.end.p0(i64 4, ptr %5) #27
  call void @llvm.lifetime.end.p0(i64 4, ptr %4) #27
  call void @llvm.lifetime.end.p0(i64 8, ptr %3) #27
  ret i64 %28
}