; Function Attrs: nounwind sspstrong uwtable
define internal i64 @proc_waitall(i64 %0) #1 {
  %2 = tail call i64 @rb_ary_new() #27
  %3 = tail call align 8 ptr @llvm.threadlocal.address.p0(ptr align 8 @ruby_current_ec)
  %4 = load ptr, ptr %3, align 8, !tbaa !7
  %5 = getelementptr i8, ptr %4, i64 48
  %.val.i.i = load ptr, ptr %5, align 8, !tbaa !12
  %6 = getelementptr inbounds nuw i8, ptr %.val.i.i, i64 208
  store i64 4, ptr %6, align 8, !tbaa !24
  br label %7

7:                                                ; preds = %30, %1
  %8 = tail call i64 @rb_process_status_wait(i32 noundef -1, i32 noundef 0)
  %9 = icmp eq i64 %8, 4
  br i1 %9, label %._crit_edge, label %10

._crit_edge:                                      ; preds = %7
  %.pre = load ptr, ptr %3, align 8, !tbaa !7
  %.phi.trans.insert = getelementptr i8, ptr %.pre, i64 48
  %.val.i.i8.pre = load ptr, ptr %.phi.trans.insert, align 8, !tbaa !12
  %.phi.trans.insert12 = getelementptr inbounds nuw i8, ptr %.val.i.i8.pre, i64 208
  %.pre13 = load i64, ptr %.phi.trans.insert12, align 8, !tbaa !24
  br label %30

10:                                               ; preds = %7
  %11 = tail call ptr @rb_check_typeddata(i64 noundef %8, ptr noundef nonnull @rb_process_status_type) #27
  %12 = load i32, ptr %11, align 4, !tbaa !49
  %13 = icmp eq i32 %12, -1
  br i1 %13, label %21, label %14

14:                                               ; preds = %10
  %15 = load ptr, ptr %3, align 8, !tbaa !7
  %16 = getelementptr i8, ptr %15, i64 48
  %.val.i.i7 = load ptr, ptr %16, align 8, !tbaa !12
  %17 = getelementptr inbounds nuw i8, ptr %.val.i.i7, i64 208
  store i64 %8, ptr %17, align 8, !tbaa !24
  %18 = sext i32 %12 to i64
  %19 = shl nsw i64 %18, 1
  %20 = or disjoint i64 %19, 1
  br label %30

21:                                               ; preds = %10
  %22 = getelementptr inbounds nuw i8, ptr %11, i64 8
  %23 = load i32, ptr %22, align 4, !tbaa !52
  %24 = tail call ptr @rb_errno_ptr() #27
  store i32 %23, ptr %24, align 4, !tbaa !60
  %25 = tail call ptr @rb_errno_ptr() #27
  %26 = load i32, ptr %25, align 4, !tbaa !60
  %27 = icmp eq i32 %26, 10
  br i1 %27, label %28, label %29

28:                                               ; preds = %21
  ret i64 %2

29:                                               ; preds = %21
  tail call void @rb_syserr_fail(i32 noundef %26, ptr noundef null) #29
  unreachable

30:                                               ; preds = %._crit_edge, %14
  %31 = phi i64 [ %8, %14 ], [ %.pre13, %._crit_edge ]
  %.0.i.ph = phi i64 [ %20, %14 ], [ 1, %._crit_edge ]
  %32 = tail call i64 @rb_assoc_new(i64 noundef %.0.i.ph, i64 noundef %31) #27
  %33 = tail call i64 @rb_ary_push(i64 noundef %2, i64 noundef %32) #27
  br label %7
}